target datalayout = "e-m:e-p270:32:32-p271:32:32-p272:64:64-i64:64-i128:128-f80:128-n8:16:32:64-S128"
target triple = "x86_64-unknown-linux-gnu"

%"class.OpenColorIO_v2_4dev::OpCPU" = type { ptr }
%"class.OpenColorIO_v2_4dev::GammaMoncurveOpCPU" = type { %"class.OpenColorIO_v2_4dev::OpCPU", %"struct.OpenColorIO_v2_4dev::RendererParams", %"struct.OpenColorIO_v2_4dev::RendererParams", %"struct.OpenColorIO_v2_4dev::RendererParams", %"struct.OpenColorIO_v2_4dev::RendererParams" }
%"struct.OpenColorIO_v2_4dev::RendererParams" = type { float, float, float, float, float }

; Function Attrs: mustprogress nounwind uwtable
define linkonce_odr noundef float @_ZSt3powff(float noundef %__x, float noundef %__y) #5 comdat {
entry:
  %__x.addr = alloca float, align 4
  %__y.addr = alloca float, align 4
  store float %__x, ptr %__x.addr, align 4
  store float %__y, ptr %__y.addr, align 4
  %0 = load float, ptr %__x.addr, align 4
  %1 = load float, ptr %__y.addr, align 4
  %call = call float @powf(float noundef %0, float noundef %1) #3
  ret float %call
}

; Function Attrs: mustprogress uwtable
define hidden void @_ZNK19OpenColorIO_v2_4dev21GammaMoncurveOpCPURev5applyEPKvPvl(ptr noundef nonnull align 8 dereferenceable(88) %this, ptr noundef %inImg, ptr noundef %outImg, i64 noundef %numPixels) unnamed_addr #6 align 2 {
entry:
  %this.addr = alloca ptr, align 8
  %inImg.addr = alloca ptr, align 8
  %outImg.addr = alloca ptr, align 8
  %numPixels.addr = alloca i64, align 8
  %in = alloca ptr, align 8
  %out = alloca ptr, align 8
  %red = alloca [5 x float], align 16
  %grn = alloca [5 x float], align 16
  %blu = alloca [5 x float], align 16
  %alp = alloca [5 x float], align 16
  %idx = alloca i64, align 8
  %pixel = alloca [4 x float], align 16
  %data = alloca [4 x float], align 16
  store ptr %this, ptr %this.addr, align 8
  store ptr %inImg, ptr %inImg.addr, align 8
  store ptr %outImg, ptr %outImg.addr, align 8
  store i64 %numPixels, ptr %numPixels.addr, align 8
  %this1 = load ptr, ptr %this.addr, align 8
  %0 = load ptr, ptr %inImg.addr, align 8
  store ptr %0, ptr %in, align 8
  %1 = load ptr, ptr %outImg.addr, align 8
  store ptr %1, ptr %out, align 8
  %arrayinit.begin = getelementptr inbounds [5 x float], ptr %red, i64 0, i64 0
  %m_red = getelementptr inbounds %"class.OpenColorIO_v2_4dev::GammaMoncurveOpCPU", ptr %this1, i32 0, i32 1
  %gamma = getelementptr inbounds %"struct.OpenColorIO_v2_4dev::RendererParams", ptr %m_red, i32 0, i32 0
  %2 = load float, ptr %gamma, align 8
  store float %2, ptr %arrayinit.begin, align 4
  %arrayinit.element = getelementptr inbounds float, ptr %arrayinit.begin, i64 1
  %m_red2 = getelementptr inbounds %"class.OpenColorIO_v2_4dev::GammaMoncurveOpCPU", ptr %this1, i32 0, i32 1
  %scale = getelementptr inbounds %"struct.OpenColorIO_v2_4dev::RendererParams", ptr %m_red2, i32 0, i32 4
  %3 = load float, ptr %scale, align 8
  store float %3, ptr %arrayinit.element, align 4
  %arrayinit.element3 = getelementptr inbounds float, ptr %arrayinit.element, i64 1
  %m_red4 = getelementptr inbounds %"class.OpenColorIO_v2_4dev::GammaMoncurveOpCPU", ptr %this1, i32 0, i32 1
  %offset = getelementptr inbounds %"struct.OpenColorIO_v2_4dev::RendererParams", ptr %m_red4, i32 0, i32 1
  %4 = load float, ptr %offset, align 4
  store float %4, ptr %arrayinit.element3, align 4
  %arrayinit.element5 = getelementptr inbounds float, ptr %arrayinit.element3, i64 1
  %m_red6 = getelementptr inbounds %"class.OpenColorIO_v2_4dev::GammaMoncurveOpCPU", ptr %this1, i32 0, i32 1
  %breakPnt = getelementptr inbounds %"struct.OpenColorIO_v2_4dev::RendererParams", ptr %m_red6, i32 0, i32 2
  %5 = load float, ptr %breakPnt, align 8
  store float %5, ptr %arrayinit.element5, align 4
  %arrayinit.element7 = getelementptr inbounds float, ptr %arrayinit.element5, i64 1
  %m_red8 = getelementptr inbounds %"class.OpenColorIO_v2_4dev::GammaMoncurveOpCPU", ptr %this1, i32 0, i32 1
  %slope = getelementptr inbounds %"struct.OpenColorIO_v2_4dev::RendererParams", ptr %m_red8, i32 0, i32 3
  %6 = load float, ptr %slope, align 4
  store float %6, ptr %arrayinit.element7, align 4
  %arrayinit.begin9 = getelementptr inbounds [5 x float], ptr %grn, i64 0, i64 0
  %m_green = getelementptr inbounds %"class.OpenColorIO_v2_4dev::GammaMoncurveOpCPU", ptr %this1, i32 0, i32 2
  %gamma10 = getelementptr inbounds %"struct.OpenColorIO_v2_4dev::RendererParams", ptr %m_green, i32 0, i32 0
  %7 = load float, ptr %gamma10, align 4
  store float %7, ptr %arrayinit.begin9, align 4
  %arrayinit.element11 = getelementptr inbounds float, ptr %arrayinit.begin9, i64 1
  %m_green12 = getelementptr inbounds %"class.OpenColorIO_v2_4dev::GammaMoncurveOpCPU", ptr %this1, i32 0, i32 2
  %scale13 = getelementptr inbounds %"struct.OpenColorIO_v2_4dev::RendererParams", ptr %m_green12, i32 0, i32 4
  %8 = load float, ptr %scale13, align 4
  store float %8, ptr %arrayinit.element11, align 4
  %arrayinit.element14 = getelementptr inbounds float, ptr %arrayinit.element11, i64 1
  %m_green15 = getelementptr inbounds %"class.OpenColorIO_v2_4dev::GammaMoncurveOpCPU", ptr %this1, i32 0, i32 2
  %offset16 = getelementptr inbounds %"struct.OpenColorIO_v2_4dev::RendererParams", ptr %m_green15, i32 0, i32 1
  %9 = load float, ptr %offset16, align 4
  store float %9, ptr %arrayinit.element14, align 4
  %arrayinit.element17 = getelementptr inbounds float, ptr %arrayinit.element14, i64 1
  %m_green18 = getelementptr inbounds %"class.OpenColorIO_v2_4dev::GammaMoncurveOpCPU", ptr %this1, i32 0, i32 2
  %breakPnt19 = getelementptr inbounds %"struct.OpenColorIO_v2_4dev::RendererParams", ptr %m_green18, i32 0, i32 2
  %10 = load float, ptr %breakPnt19, align 4
  store float %10, ptr %arrayinit.element17, align 4
  %arrayinit.element20 = getelementptr inbounds float, ptr %arrayinit.element17, i64 1
  %m_green21 = getelementptr inbounds %"class.OpenColorIO_v2_4dev::GammaMoncurveOpCPU", ptr %this1, i32 0, i32 2
  %slope22 = getelementptr inbounds %"struct.OpenColorIO_v2_4dev::RendererParams", ptr %m_green21, i32 0, i32 3
  %11 = load float, ptr %slope22, align 4
  store float %11, ptr %arrayinit.element20, align 4
  %arrayinit.begin23 = getelementptr inbounds [5 x float], ptr %blu, i64 0, i64 0
  %m_blue = getelementptr inbounds %"class.OpenColorIO_v2_4dev::GammaMoncurveOpCPU", ptr %this1, i32 0, i32 3
  %gamma24 = getelementptr inbounds %"struct.OpenColorIO_v2_4dev::RendererParams", ptr %m_blue, i32 0, i32 0
  %12 = load float, ptr %gamma24, align 8
  store float %12, ptr %arrayinit.begin23, align 4
  %arrayinit.element25 = getelementptr inbounds float, ptr %arrayinit.begin23, i64 1
  %m_blue26 = getelementptr inbounds %"class.OpenColorIO_v2_4dev::GammaMoncurveOpCPU", ptr %this1, i32 0, i32 3
  %scale27 = getelementptr inbounds %"struct.OpenColorIO_v2_4dev::RendererParams", ptr %m_blue26, i32 0, i32 4
  %13 = load float, ptr %scale27, align 8
  store float %13, ptr %arrayinit.element25, align 4
  %arrayinit.element28 = getelementptr inbounds float, ptr %arrayinit.element25, i64 1
  %m_blue29 = getelementptr inbounds %"class.OpenColorIO_v2_4dev::GammaMoncurveOpCPU", ptr %this1, i32 0, i32 3
  %offset30 = getelementptr inbounds %"struct.OpenColorIO_v2_4dev::RendererParams", ptr %m_blue29, i32 0, i32 1
  %14 = load float, ptr %offset30, align 4
  store float %14, ptr %arrayinit.element28, align 4
  %arrayinit.element31 = getelementptr inbounds float, ptr %arrayinit.element28, i64 1
  %m_blue32 = getelementptr inbounds %"class.OpenColorIO_v2_4dev::GammaMoncurveOpCPU", ptr %this1, i32 0, i32 3
  %breakPnt33 = getelementptr inbounds %"struct.OpenColorIO_v2_4dev::RendererParams", ptr %m_blue32, i32 0, i32 2
  %15 = load float, ptr %breakPnt33, align 8
  store float %15, ptr %arrayinit.element31, align 4
  %arrayinit.element34 = getelementptr inbounds float, ptr %arrayinit.element31, i64 1
  %m_blue35 = getelementptr inbounds %"class.OpenColorIO_v2_4dev::GammaMoncurveOpCPU", ptr %this1, i32 0, i32 3
  %slope36 = getelementptr inbounds %"struct.OpenColorIO_v2_4dev::RendererParams", ptr %m_blue35, i32 0, i32 3
  %16 = load float, ptr %slope36, align 4
  store float %16, ptr %arrayinit.element34, align 4
  %arrayinit.begin37 = getelementptr inbounds [5 x float], ptr %alp, i64 0, i64 0
  %m_alpha = getelementptr inbounds %"class.OpenColorIO_v2_4dev::GammaMoncurveOpCPU", ptr %this1, i32 0, i32 4
  %gamma38 = getelementptr inbounds %"struct.OpenColorIO_v2_4dev::RendererParams", ptr %m_alpha, i32 0, i32 0
  %17 = load float, ptr %gamma38, align 4
  store float %17, ptr %arrayinit.begin37, align 4
  %arrayinit.element39 = getelementptr inbounds float, ptr %arrayinit.begin37, i64 1
  %m_alpha40 = getelementptr inbounds %"class.OpenColorIO_v2_4dev::GammaMoncurveOpCPU", ptr %this1, i32 0, i32 4
  %scale41 = getelementptr inbounds %"struct.OpenColorIO_v2_4dev::RendererParams", ptr %m_alpha40, i32 0, i32 4
  %18 = load float, ptr %scale41, align 4
  store float %18, ptr %arrayinit.element39, align 4
  %arrayinit.element42 = getelementptr inbounds float, ptr %arrayinit.element39, i64 1
  %m_alpha43 = getelementptr inbounds %"class.OpenColorIO_v2_4dev::GammaMoncurveOpCPU", ptr %this1, i32 0, i32 4
  %offset44 = getelementptr inbounds %"struct.OpenColorIO_v2_4dev::RendererParams", ptr %m_alpha43, i32 0, i32 1
  %19 = load float, ptr %offset44, align 4
  store float %19, ptr %arrayinit.element42, align 4
  %arrayinit.element45 = getelementptr inbounds float, ptr %arrayinit.element42, i64 1
  %m_alpha46 = getelementptr inbounds %"class.OpenColorIO_v2_4dev::GammaMoncurveOpCPU", ptr %this1, i32 0, i32 4
  %breakPnt47 = getelementptr inbounds %"struct.OpenColorIO_v2_4dev::RendererParams", ptr %m_alpha46, i32 0, i32 2
  %20 = load float, ptr %breakPnt47, align 4
  store float %20, ptr %arrayinit.element45, align 4
  %arrayinit.element48 = getelementptr inbounds float, ptr %arrayinit.element45, i64 1
  %m_alpha49 = getelementptr inbounds %"class.OpenColorIO_v2_4dev::GammaMoncurveOpCPU", ptr %this1, i32 0, i32 4
  %slope50 = getelementptr inbounds %"struct.OpenColorIO_v2_4dev::RendererParams", ptr %m_alpha49, i32 0, i32 3
  %21 = load float, ptr %slope50, align 4
  store float %21, ptr %arrayinit.element48, align 4
  store i64 0, ptr %idx, align 8
  br label %for.cond

for.cond:                                         ; preds = %for.inc, %entry
  %22 = load i64, ptr %idx, align 8
  %23 = load i64, ptr %numPixels.addr, align 8
  %cmp = icmp slt i64 %22, %23
  br i1 %cmp, label %for.body, label %for.end

for.body:                                         ; preds = %for.cond
  %arrayinit.begin51 = getelementptr inbounds [4 x float], ptr %pixel, i64 0, i64 0
  %24 = load ptr, ptr %in, align 8
  %arrayidx = getelementptr inbounds float, ptr %24, i64 0
  %25 = load float, ptr %arrayidx, align 4
  store float %25, ptr %arrayinit.begin51, align 4
  %arrayinit.element52 = getelementptr inbounds float, ptr %arrayinit.begin51, i64 1
  %26 = load ptr, ptr %in, align 8
  %arrayidx53 = getelementptr inbounds float, ptr %26, i64 1
  %27 = load float, ptr %arrayidx53, align 4
  store float %27, ptr %arrayinit.element52, align 4
  %arrayinit.element54 = getelementptr inbounds float, ptr %arrayinit.element52, i64 1
  %28 = load ptr, ptr %in, align 8
  %arrayidx55 = getelementptr inbounds float, ptr %28, i64 2
  %29 = load float, ptr %arrayidx55, align 4
  store float %29, ptr %arrayinit.element54, align 4
  %arrayinit.element56 = getelementptr inbounds float, ptr %arrayinit.element54, i64 1
  %30 = load ptr, ptr %in, align 8
  %arrayidx57 = getelementptr inbounds float, ptr %30, i64 3
  %31 = load float, ptr %arrayidx57, align 4
  store float %31, ptr %arrayinit.element56, align 4
  %arrayinit.begin58 = getelementptr inbounds [4 x float], ptr %data, i64 0, i64 0
  %arrayidx59 = getelementptr inbounds [4 x float], ptr %pixel, i64 0, i64 0
  %32 = load float, ptr %arrayidx59, align 16
  %arrayidx60 = getelementptr inbounds [5 x float], ptr %red, i64 0, i64 0
  %33 = load float, ptr %arrayidx60, align 16
  %call = call noundef float @_ZSt3powff(float noundef %32, float noundef %33)
  %arrayidx61 = getelementptr inbounds [5 x float], ptr %red, i64 0, i64 1
  %34 = load float, ptr %arrayidx61, align 4
  %arrayidx62 = getelementptr inbounds [5 x float], ptr %red, i64 0, i64 2
  %35 = load float, ptr %arrayidx62, align 8
  %neg = fneg float %35
  %36 = call float @llvm.fmuladd.f32(float %call, float %34, float %neg)
  store float %36, ptr %arrayinit.begin58, align 4
  %arrayinit.element63 = getelementptr inbounds float, ptr %arrayinit.begin58, i64 1
  %arrayidx64 = getelementptr inbounds [4 x float], ptr %pixel, i64 0, i64 1
  %37 = load float, ptr %arrayidx64, align 4
  %arrayidx65 = getelementptr inbounds [5 x float], ptr %grn, i64 0, i64 0
  %38 = load float, ptr %arrayidx65, align 16
  %call66 = call noundef float @_ZSt3powff(float noundef %37, float noundef %38)
  %arrayidx67 = getelementptr inbounds [5 x float], ptr %grn, i64 0, i64 1
  %39 = load float, ptr %arrayidx67, align 4
  %arrayidx68 = getelementptr inbounds [5 x float], ptr %grn, i64 0, i64 2
  %40 = load float, ptr %arrayidx68, align 8
  %neg69 = fneg float %40
  %41 = call float @llvm.fmuladd.f32(float %call66, float %39, float %neg69)
  store float %41, ptr %arrayinit.element63, align 4
  %arrayinit.element70 = getelementptr inbounds float, ptr %arrayinit.element63, i64 1
  %arrayidx71 = getelementptr inbounds [4 x float], ptr %pixel, i64 0, i64 2
  %42 = load float, ptr %arrayidx71, align 8
  %arrayidx72 = getelementptr inbounds [5 x float], ptr %blu, i64 0, i64 0
  %43 = load float, ptr %arrayidx72, align 16
  %call73 = call noundef float @_ZSt3powff(float noundef %42, float noundef %43)
  %arrayidx74 = getelementptr inbounds [5 x float], ptr %blu, i64 0, i64 1
  %44 = load float, ptr %arrayidx74, align 4
  %arrayidx75 = getelementptr inbounds [5 x float], ptr %blu, i64 0, i64 2
  %45 = load float, ptr %arrayidx75, align 8
  %neg76 = fneg float %45
  %46 = call float @llvm.fmuladd.f32(float %call73, float %44, float %neg76)
  store float %46, ptr %arrayinit.element70, align 4
  %arrayinit.element77 = getelementptr inbounds float, ptr %arrayinit.element70, i64 1
  %arrayidx78 = getelementptr inbounds [4 x float], ptr %pixel, i64 0, i64 3
  %47 = load float, ptr %arrayidx78, align 4
  %arrayidx79 = getelementptr inbounds [5 x float], ptr %alp, i64 0, i64 0
  %48 = load float, ptr %arrayidx79, align 16
  %call80 = call noundef float @_ZSt3powff(float noundef %47, float noundef %48)
  %arrayidx81 = getelementptr inbounds [5 x float], ptr %alp, i64 0, i64 1
  %49 = load float, ptr %arrayidx81, align 4
  %arrayidx82 = getelementptr inbounds [5 x float], ptr %alp, i64 0, i64 2
  %50 = load float, ptr %arrayidx82, align 8
  %neg83 = fneg float %50
  %51 = call float @llvm.fmuladd.f32(float %call80, float %49, float %neg83)
  store float %51, ptr %arrayinit.element77, align 4
  %arrayidx84 = getelementptr inbounds [4 x float], ptr %pixel, i64 0, i64 0
  %52 = load float, ptr %arrayidx84, align 16
  %arrayidx85 = getelementptr inbounds [5 x float], ptr %red, i64 0, i64 3
  %53 = load float, ptr %arrayidx85, align 4
  %cmp86 = fcmp ole float %52, %53
  br i1 %cmp86, label %cond.true, label %cond.false

cond.true:                                        ; preds = %for.body
  %arrayidx87 = getelementptr inbounds [4 x float], ptr %pixel, i64 0, i64 0
  %54 = load float, ptr %arrayidx87, align 16
  %arrayidx88 = getelementptr inbounds [5 x float], ptr %red, i64 0, i64 4
  %55 = load float, ptr %arrayidx88, align 16
  %mul = fmul float %54, %55
  br label %cond.end

cond.false:                                       ; preds = %for.body
  %arrayidx89 = getelementptr inbounds [4 x float], ptr %data, i64 0, i64 0
  %56 = load float, ptr %arrayidx89, align 16
  br label %cond.end

cond.end:                                         ; preds = %cond.false, %cond.true
  %cond = phi float [ %mul, %cond.true ], [ %56, %cond.false ]
  %57 = load ptr, ptr %out, align 8
  %arrayidx90 = getelementptr inbounds float, ptr %57, i64 0
  store float %cond, ptr %arrayidx90, align 4
  %arrayidx91 = getelementptr inbounds [4 x float], ptr %pixel, i64 0, i64 1
  %58 = load float, ptr %arrayidx91, align 4
  %arrayidx92 = getelementptr inbounds [5 x float], ptr %grn, i64 0, i64 3
  %59 = load float, ptr %arrayidx92, align 4
  %cmp93 = fcmp ole float %58, %59
  br i1 %cmp93, label %cond.true94, label %cond.false98

cond.true94:                                      ; preds = %cond.end
  %arrayidx95 = getelementptr inbounds [4 x float], ptr %pixel, i64 0, i64 1
  %60 = load float, ptr %arrayidx95, align 4
  %arrayidx96 = getelementptr inbounds [5 x float], ptr %grn, i64 0, i64 4
  %61 = load float, ptr %arrayidx96, align 16
  %mul97 = fmul float %60, %61
  br label %cond.end100

cond.false98:                                     ; preds = %cond.end
  %arrayidx99 = getelementptr inbounds [4 x float], ptr %data, i64 0, i64 1
  %62 = load float, ptr %arrayidx99, align 4
  br label %cond.end100

cond.end100:                                      ; preds = %cond.false98, %cond.true94
  %cond101 = phi float [ %mul97, %cond.true94 ], [ %62, %cond.false98 ]
  %63 = load ptr, ptr %out, align 8
  %arrayidx102 = getelementptr inbounds float, ptr %63, i64 1
  store float %cond101, ptr %arrayidx102, align 4
  %arrayidx103 = getelementptr inbounds [4 x float], ptr %pixel, i64 0, i64 2
  %64 = load float, ptr %arrayidx103, align 8
  %arrayidx104 = getelementptr inbounds [5 x float], ptr %blu, i64 0, i64 3
  %65 = load float, ptr %arrayidx104, align 4
  %cmp105 = fcmp ole float %64, %65
  br i1 %cmp105, label %cond.true106, label %cond.false110

cond.true106:                                     ; preds = %cond.end100
  %arrayidx107 = getelementptr inbounds [4 x float], ptr %pixel, i64 0, i64 2
  %66 = load float, ptr %arrayidx107, align 8
  %arrayidx108 = getelementptr inbounds [5 x float], ptr %blu, i64 0, i64 4
  %67 = load float, ptr %arrayidx108, align 16
  %mul109 = fmul float %66, %67
  br label %cond.end112

cond.false110:                                    ; preds = %cond.end100
  %arrayidx111 = getelementptr inbounds [4 x float], ptr %data, i64 0, i64 2
  %68 = load float, ptr %arrayidx111, align 8
  br label %cond.end112

cond.end112:                                      ; preds = %cond.false110, %cond.true106
  %cond113 = phi float [ %mul109, %cond.true106 ], [ %68, %cond.false110 ]
  %69 = load ptr, ptr %out, align 8
  %arrayidx114 = getelementptr inbounds float, ptr %69, i64 2
  store float %cond113, ptr %arrayidx114, align 4
  %arrayidx115 = getelementptr inbounds [4 x float], ptr %pixel, i64 0, i64 3
  %70 = load float, ptr %arrayidx115, align 4
  %arrayidx116 = getelementptr inbounds [5 x float], ptr %alp, i64 0, i64 3
  %71 = load float, ptr %arrayidx116, align 4
  %cmp117 = fcmp ole float %70, %71
  br i1 %cmp117, label %cond.true118, label %cond.false122

cond.true118:                                     ; preds = %cond.end112
  %arrayidx119 = getelementptr inbounds [4 x float], ptr %pixel, i64 0, i64 3
  %72 = load float, ptr %arrayidx119, align 4
  %arrayidx120 = getelementptr inbounds [5 x float], ptr %alp, i64 0, i64 4
  %73 = load float, ptr %arrayidx120, align 16
  %mul121 = fmul float %72, %73
  br label %cond.end124

cond.false122:                                    ; preds = %cond.end112
  %arrayidx123 = getelementptr inbounds [4 x float], ptr %data, i64 0, i64 3
  %74 = load float, ptr %arrayidx123, align 4
  br label %cond.end124

cond.end124:                                      ; preds = %cond.false122, %cond.true118
  %cond125 = phi float [ %mul121, %cond.true118 ], [ %74, %cond.false122 ]
  %75 = load ptr, ptr %out, align 8
  %arrayidx126 = getelementptr inbounds float, ptr %75, i64 3
  store float %cond125, ptr %arrayidx126, align 4
  %76 = load ptr, ptr %in, align 8
  %add.ptr = getelementptr inbounds float, ptr %76, i64 4
  store ptr %add.ptr, ptr %in, align 8
  %77 = load ptr, ptr %out, align 8
  %add.ptr127 = getelementptr inbounds float, ptr %77, i64 4
  store ptr %add.ptr127, ptr %out, align 8
  br label %for.inc

for.inc:                                          ; preds = %cond.end124
  %78 = load i64, ptr %idx, align 8
  %inc = add nsw i64 %78, 1
  store i64 %inc, ptr %idx, align 8
  br label %for.cond, !llvm.loop !14

for.end:                                          ; preds = %for.cond
  ret void
}