; Function Attrs: mustprogress nofree nounwind memory(readwrite, inaccessiblemem: write) uwtable
define hidden void @_ZNK19OpenColorIO_v2_4dev21GammaMoncurveOpCPURev5applyEPKvPvl(ptr nocapture noundef nonnull readonly align 8 dereferenceable(88) %this, ptr nocapture noundef readonly %inImg, ptr nocapture noundef writeonly %outImg, i64 noundef %numPixels) unnamed_addr #7 align 2 {
entry:
  %m_red = getelementptr inbounds i8, ptr %this, i64 8
  %0 = load float, ptr %m_red, align 8
  %m_green = getelementptr inbounds i8, ptr %this, i64 28
  %1 = load float, ptr %m_green, align 4
  %m_blue = getelementptr inbounds i8, ptr %this, i64 48
  %2 = load float, ptr %m_blue, align 8
  %m_alpha = getelementptr inbounds i8, ptr %this, i64 68
  %3 = load float, ptr %m_alpha, align 4
  %cmp21 = icmp sgt i64 %numPixels, 0
  br i1 %cmp21, label %for.body.lr.ph, label %for.end

for.body.lr.ph:                                   ; preds = %entry
  %slope50 = getelementptr inbounds i8, ptr %this, i64 80
  %4 = load float, ptr %slope50, align 8
  %breakPnt47 = getelementptr inbounds i8, ptr %this, i64 76
  %5 = load float, ptr %breakPnt47, align 4
  %scale41 = getelementptr inbounds i8, ptr %this, i64 84
  %6 = load float, ptr %scale41, align 4
  %slope36 = getelementptr inbounds i8, ptr %this, i64 60
  %7 = load float, ptr %slope36, align 4
  %breakPnt33 = getelementptr inbounds i8, ptr %this, i64 56
  %8 = load float, ptr %breakPnt33, align 8
  %scale27 = getelementptr inbounds i8, ptr %this, i64 64
  %9 = load float, ptr %scale27, align 8
  %slope22 = getelementptr inbounds i8, ptr %this, i64 40
  %10 = load float, ptr %slope22, align 8
  %breakPnt19 = getelementptr inbounds i8, ptr %this, i64 36
  %11 = load float, ptr %breakPnt19, align 4
  %scale13 = getelementptr inbounds i8, ptr %this, i64 44
  %12 = load float, ptr %scale13, align 4
  %slope = getelementptr inbounds i8, ptr %this, i64 20
  %13 = load <4 x float>, ptr %slope, align 4
  %breakPnt = getelementptr inbounds i8, ptr %this, i64 16
  %14 = load <4 x float>, ptr %breakPnt, align 8
  %scale = getelementptr inbounds i8, ptr %this, i64 24
  %15 = load <4 x float>, ptr %scale, align 8
  %offset44 = getelementptr inbounds i8, ptr %this, i64 72
  %16 = load float, ptr %offset44, align 8
  %offset30 = getelementptr inbounds i8, ptr %this, i64 52
  %17 = load float, ptr %offset30, align 4
  %offset16 = getelementptr inbounds i8, ptr %this, i64 32
  %18 = load float, ptr %offset16, align 8
  %offset = getelementptr inbounds i8, ptr %this, i64 12
  %19 = load <4 x float>, ptr %offset, align 4
  %20 = insertelement <4 x float> %19, float %18, i64 1
  %21 = insertelement <4 x float> %20, float %17, i64 2
  %22 = insertelement <4 x float> %21, float %16, i64 3
  %23 = fneg <4 x float> %22
  %24 = insertelement <4 x float> %14, float %11, i64 1
  %25 = insertelement <4 x float> %24, float %8, i64 2
  %26 = insertelement <4 x float> %25, float %5, i64 3
  %27 = insertelement <4 x float> %13, float %10, i64 1
  %28 = insertelement <4 x float> %27, float %7, i64 2
  %29 = insertelement <4 x float> %28, float %4, i64 3
  %30 = insertelement <4 x float> %15, float %12, i64 1
  %31 = insertelement <4 x float> %30, float %9, i64 2
  %32 = insertelement <4 x float> %31, float %6, i64 3
  br label %for.body

for.body:                                         ; preds = %for.body.lr.ph, %for.body
  %in.024 = phi ptr [ %inImg, %for.body.lr.ph ], [ %add.ptr, %for.body ]
  %out.023 = phi ptr [ %outImg, %for.body.lr.ph ], [ %add.ptr127, %for.body ]
  %idx.022 = phi i64 [ 0, %for.body.lr.ph ], [ %inc, %for.body ]
  %33 = load <4 x float>, ptr %in.024, align 4
  %34 = extractelement <4 x float> %33, i64 0
  %call.i = tail call noundef float @powf(float noundef %34, float noundef %0) #19
  %35 = extractelement <4 x float> %33, i64 1
  %call.i18 = tail call noundef float @powf(float noundef %35, float noundef %1) #19
  %36 = extractelement <4 x float> %33, i64 2
  %call.i19 = tail call noundef float @powf(float noundef %36, float noundef %2) #19
  %37 = extractelement <4 x float> %33, i64 3
  %call.i20 = tail call noundef float @powf(float noundef %37, float noundef %3) #19
  %38 = insertelement <4 x float> poison, float %call.i, i64 0
  %39 = insertelement <4 x float> %38, float %call.i18, i64 1
  %40 = insertelement <4 x float> %39, float %call.i19, i64 2
  %41 = insertelement <4 x float> %40, float %call.i20, i64 3
  %42 = tail call <4 x float> @llvm.fmuladd.v4f32(<4 x float> %41, <4 x float> %32, <4 x float> %23)
  %43 = fcmp ole <4 x float> %33, %26
  %44 = fmul <4 x float> %29, %33
  %45 = select <4 x i1> %43, <4 x float> %44, <4 x float> %42
  store <4 x float> %45, ptr %out.023, align 4
  %add.ptr = getelementptr inbounds i8, ptr %in.024, i64 16
  %add.ptr127 = getelementptr inbounds i8, ptr %out.023, i64 16
  %inc = add nuw nsw i64 %idx.022, 1
  %exitcond.not = icmp eq i64 %inc, %numPixels
  br i1 %exitcond.not, label %for.end, label %for.body, !llvm.loop !57

for.end:                                          ; preds = %for.body, %entry
  ret void
}